; ModuleID = '29/937.c'
source_filename = "29/937.c"
target datalayout = "e-m:e-p270:32:32-p271:32:32-p272:64:64-i64:64-f80:128-n8:16:32:64-S128"
target triple = "x86_64-pc-linux-gnu"

@.str = private unnamed_addr constant [3 x i8] c"%d\00", align 1
@.str.1 = private unnamed_addr constant [6 x i8] c"%.3f\0A\00", align 1

; Function Attrs: noinline nounwind uwtable
define dso_local i32 @main() #0 {
  %1 = alloca i32, align 4
  %2 = alloca [100 x i32], align 16
  %3 = alloca i32, align 4
  %4 = alloca i32, align 4
  %5 = alloca i32, align 4
  %6 = alloca float, align 4
  %7 = alloca float, align 4
  %8 = alloca float, align 4
  %9 = alloca float, align 4
  store i32 0, i32* %1, align 4
  %10 = call i32 (i8*, ...) @__isoc99_scanf(i8* getelementptr inbounds ([3 x i8], [3 x i8]* @.str, i64 0, i64 0), i32* %3)
  store i32 0, i32* %4, align 4
  br label %11

11:                                               ; preds = %15, %0
  %12 = load i32, i32* %4, align 4
  %13 = load i32, i32* %3, align 4
  %14 = icmp slt i32 %12, %13
  br i1 %14, label %15, label %22

15:                                               ; preds = %11
  %16 = load i32, i32* %4, align 4
  %17 = sext i32 %16 to i64
  %18 = getelementptr inbounds [100 x i32], [100 x i32]* %2, i64 0, i64 %17
  %19 = call i32 (i8*, ...) @__isoc99_scanf(i8* getelementptr inbounds ([3 x i8], [3 x i8]* @.str, i64 0, i64 0), i32* %18)
  %20 = load i32, i32* %4, align 4
  %21 = add nsw i32 %20, 1
  store i32 %21, i32* %4, align 4
  br label %11

22:                                               ; preds = %11
  store i32 0, i32* %4, align 4
  br label %23

23:                                               ; preds = %48, %22
  %24 = load i32, i32* %4, align 4
  %25 = load i32, i32* %3, align 4
  %26 = icmp slt i32 %24, %25
  br i1 %26, label %27, label %54

27:                                               ; preds = %23
  store float 1.000000e+00, float* %7, align 4
  store float 2.000000e+00, float* %8, align 4
  store float 0.000000e+00, float* %6, align 4
  store i32 1, i32* %5, align 4
  br label %28

28:                                               ; preds = %35, %27
  %29 = load i32, i32* %5, align 4
  %30 = load i32, i32* %4, align 4
  %31 = sext i32 %30 to i64
  %32 = getelementptr inbounds [100 x i32], [100 x i32]* %2, i64 0, i64 %31
  %33 = load i32, i32* %32, align 4
  %34 = icmp sle i32 %29, %33
  br i1 %34, label %35, label %48

35:                                               ; preds = %28
  %36 = load float, float* %8, align 4
  %37 = load float, float* %7, align 4
  %38 = fdiv float %36, %37
  %39 = load float, float* %6, align 4
  %40 = fadd float %38, %39
  store float %40, float* %6, align 4
  %41 = load float, float* %8, align 4
  store float %41, float* %9, align 4
  %42 = load float, float* %7, align 4
  %43 = load float, float* %8, align 4
  %44 = fadd float %42, %43
  store float %44, float* %8, align 4
  %45 = load float, float* %9, align 4
  store float %45, float* %7, align 4
  %46 = load i32, i32* %5, align 4
  %47 = add nsw i32 %46, 1
  store i32 %47, i32* %5, align 4
  br label %28

48:                                               ; preds = %28
  %49 = load float, float* %6, align 4
  %50 = fpext float %49 to double
  %51 = call i32 (i8*, ...) @printf(i8* getelementptr inbounds ([6 x i8], [6 x i8]* @.str.1, i64 0, i64 0), double %50)
  %52 = load i32, i32* %4, align 4
  %53 = add nsw i32 %52, 1
  store i32 %53, i32* %4, align 4
  br label %23

54:                                               ; preds = %23
  %55 = call i32 @getchar()
  %56 = call i32 @getchar()
  %57 = call i32 @getchar()
  %58 = call i32 @getchar()
  %59 = call i32 @getchar()
  %60 = call i32 @getchar()
  %61 = call i32 @getchar()
  %62 = call i32 @getchar()
  %63 = call i32 @getchar()
  %64 = call i32 @getchar()
  %65 = call i32 @getchar()
  %66 = call i32 @getchar()
  %67 = call i32 @getchar()
  %68 = call i32 @getchar()
  %69 = call i32 @getchar()
  %70 = call i32 @getchar()
  %71 = call i32 @getchar()
  %72 = call i32 @getchar()
  %73 = call i32 @getchar()
  %74 = call i32 @getchar()
  %75 = call i32 @getchar()
  %76 = call i32 @getchar()
  %77 = call i32 @getchar()
  %78 = call i32 @getchar()
  %79 = call i32 @getchar()
  %80 = call i32 @getchar()
  %81 = load i32, i32* %1, align 4
  ret i32 %81
}

declare dso_local i32 @__isoc99_scanf(i8*, ...) #1

declare dso_local i32 @printf(i8*, ...) #1

declare dso_local i32 @getchar() #1


!llvm.module.flags = !{!0}
!llvm.ident = !{!1}

!0 = !{i32 1, !"wchar_size", i32 4}
!1 = !{!"clang version 10.0.0-4ubuntu1 "}
